; Function Attrs: mustprogress uwtable
define dso_local { ptr, ptr } @_ZN4Luau20DataFlowGraphBuilder9visitExprEPNS_13AstExprIfElseE(ptr noundef nonnull align 8 dereferenceable(336) %0, ptr noundef readonly captures(none) %1) local_unnamed_addr #2 align 2 {
  %3 = getelementptr inbounds nuw i8, ptr %1, i64 32
  %4 = load ptr, ptr %3, align 8, !tbaa !471
  %5 = tail call { ptr, ptr } @_ZN4Luau20DataFlowGraphBuilder9visitExprEPNS_7AstExprE(ptr noundef nonnull align 8 dereferenceable(336) %0, ptr noundef %4)
  %6 = getelementptr inbounds nuw i8, ptr %1, i64 48
  %7 = load ptr, ptr %6, align 8, !tbaa !473
  %8 = tail call { ptr, ptr } @_ZN4Luau20DataFlowGraphBuilder9visitExprEPNS_7AstExprE(ptr noundef nonnull align 8 dereferenceable(336) %0, ptr noundef %7)
  %9 = getelementptr inbounds nuw i8, ptr %1, i64 64
  %10 = load ptr, ptr %9, align 8, !tbaa !474
  %11 = tail call { ptr, ptr } @_ZN4Luau20DataFlowGraphBuilder9visitExprEPNS_7AstExprE(ptr noundef nonnull align 8 dereferenceable(336) %0, ptr noundef %10)
  %12 = getelementptr inbounds nuw i8, ptr %0, i64 216
  %13 = load ptr, ptr %12, align 8, !tbaa !182
  %14 = tail call ptr @_ZN4Luau8DefArena9freshCellEb(ptr noundef nonnull align 8 dereferenceable(40) %13, i1 noundef zeroext false)
  %.fca.0.insert = insertvalue { ptr, ptr } poison, ptr %14, 0
  %.fca.1.insert = insertvalue { ptr, ptr } %.fca.0.insert, ptr null, 1
  ret { ptr, ptr } %.fca.1.insert
}